; Function Attrs: mustprogress nofree norecurse nosync nounwind willreturn memory(argmem: read) uwtable
define internal fastcc noundef zeroext i1 @_ZN32pxrInternal_v0_24__pxrReserved__L8_IsCloseINS_7GfQuatfETnPNSt9enable_ifIXsr10GfIsGfQuatIT_EE5valueEvE4typeELPv0EEEbRKS3_S9_(ptr noundef nonnull readonly align 4 captures(none) dereferenceable(16) %0, ptr noundef nonnull readonly align 4 captures(none) dereferenceable(16) %1) unnamed_addr #1 {
  %3 = getelementptr inbounds nuw i8, ptr %0, i64 12
  %4 = load float, ptr %3, align 4
  %5 = getelementptr inbounds nuw i8, ptr %1, i64 12
  %6 = load float, ptr %5, align 4
  %7 = fpext float %4 to double
  %8 = fpext float %6 to double
  %9 = fsub double %7, %8
  %10 = tail call double @llvm.fabs.f64(double %9)
  %11 = fcmp olt double %10, 0x3EB0C6F7A0B5ED8D
  br i1 %11, label %.preheader, label %_ZN32pxrInternal_v0_24__pxrReserved__L8_IsCloseINS_7GfVec3fETnPNSt9enable_ifIXsr9GfIsGfVecIT_EE5valueEvE4typeELPv0EEEbRKS3_S9_.exit

.preheader:                                       ; preds = %2, %.preheader
  %.08.i = phi i64 [ %19, %.preheader ], [ 0, %2 ]
  %12 = getelementptr inbounds nuw [3 x float], ptr %0, i64 0, i64 %.08.i
  %13 = getelementptr inbounds nuw [3 x float], ptr %1, i64 0, i64 %.08.i
  %.val.i = load float, ptr %12, align 4
  %.val7.i = load float, ptr %13, align 4
  %14 = fpext float %.val.i to double
  %15 = fpext float %.val7.i to double
  %16 = fsub double %14, %15
  %17 = tail call double @llvm.fabs.f64(double %16)
  %18 = fcmp olt double %17, 0x3EB0C6F7A0B5ED8D
  %19 = add nuw nsw i64 %.08.i, 1
  %exitcond.i = icmp ne i64 %19, 3
  %or.cond.not.i = select i1 %18, i1 %exitcond.i, i1 false
  br i1 %or.cond.not.i, label %.preheader, label %_ZN32pxrInternal_v0_24__pxrReserved__L8_IsCloseINS_7GfVec3fETnPNSt9enable_ifIXsr9GfIsGfVecIT_EE5valueEvE4typeELPv0EEEbRKS3_S9_.exit, !llvm.loop !10

_ZN32pxrInternal_v0_24__pxrReserved__L8_IsCloseINS_7GfVec3fETnPNSt9enable_ifIXsr9GfIsGfVecIT_EE5valueEvE4typeELPv0EEEbRKS3_S9_.exit: ; preds = %.preheader, %2
  %.0 = phi i1 [ false, %2 ], [ %18, %.preheader ]
  ret i1 %.0
}